target datalayout = "e-m:e-p270:32:32-p271:32:32-p272:64:64-i64:64-i128:128-f80:128-n8:16:32:64-S128"
target triple = "x86_64-pc-linux-gnu"

%struct.PJconsts = type <{ ptr, ptr, ptr, ptr, ptr, ptr, ptr, ptr, ptr, ptr, ptr, ptr, i32, [4 x i8], ptr, ptr, ptr, ptr, ptr, ptr, ptr, ptr, double, double, double, double, double, double, double, double, double, double, double, double, double, double, double, double, double, double, double, double, double, double, i32, i32, i32, i32, i32, i32, i32, i32, i32, i32, i32, [4 x i8], ptr, ptr, ptr, ptr, ptr, ptr, double, double, double, double, double, double, double, double, double, double, double, i32, [4 x i8], [7 x double], i32, [4 x i8], ptr, ptr, double, double, i32, [4 x i8], %"class.std::shared_ptr", i8, [7 x i8], double, i8, [7 x i8], %"class.std::__cxx11::basic_string", %"class.std::__cxx11::basic_string", %"class.std::__cxx11::basic_string", i8, [7 x i8], %"class.std::vector", i32, [4 x i8], %"class.std::vector.3", i32, i8, i8, i8, i8 }>
%"class.std::shared_ptr" = type { %"class.std::__shared_ptr" }
%"class.std::__shared_ptr" = type { ptr, %"class.std::__shared_count" }
%"class.std::__shared_count" = type { ptr }
%"class.std::__cxx11::basic_string" = type { %"struct.std::__cxx11::basic_string<char>::_Alloc_hider", i64, %union.anon }
%"struct.std::__cxx11::basic_string<char>::_Alloc_hider" = type { ptr }
%union.anon = type { i64, [8 x i8] }
%"class.std::vector" = type { %"struct.std::_Vector_base" }
%"struct.std::_Vector_base" = type { %"struct.std::_Vector_base<osgeo::proj::operation::GridDescription, std::allocator<osgeo::proj::operation::GridDescription>>::_Vector_impl" }
%"struct.std::_Vector_base<osgeo::proj::operation::GridDescription, std::allocator<osgeo::proj::operation::GridDescription>>::_Vector_impl" = type { %"struct.std::_Vector_base<osgeo::proj::operation::GridDescription, std::allocator<osgeo::proj::operation::GridDescription>>::_Vector_impl_data" }
%"struct.std::_Vector_base<osgeo::proj::operation::GridDescription, std::allocator<osgeo::proj::operation::GridDescription>>::_Vector_impl_data" = type { ptr, ptr, ptr }
%"class.std::vector.3" = type { %"struct.std::_Vector_base.4" }
%"struct.std::_Vector_base.4" = type { %"struct.std::_Vector_base<PJCoordOperation, std::allocator<PJCoordOperation>>::_Vector_impl" }
%"struct.std::_Vector_base<PJCoordOperation, std::allocator<PJCoordOperation>>::_Vector_impl" = type { %"struct.std::_Vector_base<PJCoordOperation, std::allocator<PJCoordOperation>>::_Vector_impl_data" }
%"struct.std::_Vector_base<PJCoordOperation, std::allocator<PJCoordOperation>>::_Vector_impl_data" = type { ptr, ptr, ptr }
%union.PROJVALUE = type { double }
%"struct.(anonymous namespace)::pj_adams_data" = type { i32, i32, double, double }

@.str.5 = private unnamed_addr constant [7 x i8] c"sshape\00", align 1
@.str.6 = private unnamed_addr constant [8 x i8] c"diamond\00", align 1
@.str.7 = private unnamed_addr constant [7 x i8] c"square\00", align 1
@.str.8 = private unnamed_addr constant [12 x i8] c"nhemisphere\00", align 1
@.str.9 = private unnamed_addr constant [12 x i8] c"shemisphere\00", align 1
@.str.10 = private unnamed_addr constant [11 x i8] c"horizontal\00", align 1
@.str.11 = private unnamed_addr constant [9 x i8] c"tscrollx\00", align 1
@.str.12 = private unnamed_addr constant [9 x i8] c"dscrollx\00", align 1
@.str.13 = private unnamed_addr constant [61 x i8] c"Invalid value for scrollx: |scrollx| should between -1 and 1\00", align 1
@.str.14 = private unnamed_addr constant [9 x i8] c"vertical\00", align 1
@.str.15 = private unnamed_addr constant [9 x i8] c"tscrolly\00", align 1
@.str.16 = private unnamed_addr constant [9 x i8] c"dscrolly\00", align 1
@.str.17 = private unnamed_addr constant [61 x i8] c"Invalid value for scrolly: |scrolly| should between -1 and 1\00", align 1
@.str.18 = private unnamed_addr constant [46 x i8] c"peirce_q: invalid value for 'shape' parameter\00", align 1

; Function Attrs: mustprogress uwtable
define internal noundef ptr @_ZL14pj_adams_setupP8PJconstsN12_GLOBAL__N_115projection_typeE(ptr noundef %0, i32 noundef %1) #0 {
  %3 = alloca ptr, align 8
  %4 = alloca ptr, align 8
  %5 = alloca i32, align 4
  %6 = alloca ptr, align 8
  %7 = alloca ptr, align 8
  %8 = alloca %union.PROJVALUE, align 8
  %9 = alloca %union.PROJVALUE, align 8
  %10 = alloca double, align 8
  %11 = alloca %union.PROJVALUE, align 8
  %12 = alloca %union.PROJVALUE, align 8
  %13 = alloca double, align 8
  %14 = alloca %union.PROJVALUE, align 8
  store ptr %0, ptr %4, align 8
  store i32 %1, ptr %5, align 4
  %15 = call noalias ptr @calloc(i64 noundef 1, i64 noundef 24) #8
  store ptr %15, ptr %6, align 8
  %16 = load ptr, ptr %6, align 8
  %17 = icmp eq ptr null, %16
  br i1 %17, label %18, label %21

18:                                               ; preds = %2
  %19 = load ptr, ptr %4, align 8
  %20 = call noundef ptr @_Z21pj_default_destructorP8PJconstsi(ptr noundef %19, i32 noundef 4096)
  store ptr %20, ptr %3, align 8
  br label %179

21:                                               ; preds = %2
  %22 = load ptr, ptr %6, align 8
  %23 = load ptr, ptr %4, align 8
  %24 = getelementptr inbounds %struct.PJconsts, ptr %23, i32 0, i32 11
  store ptr %22, ptr %24, align 8
  %25 = load ptr, ptr %4, align 8
  %26 = getelementptr inbounds %struct.PJconsts, ptr %25, i32 0, i32 28
  store double 0.000000e+00, ptr %26, align 8
  %27 = load ptr, ptr %4, align 8
  %28 = getelementptr inbounds %struct.PJconsts, ptr %27, i32 0, i32 14
  store ptr @_ZL13adams_forward5PJ_LPP8PJconsts, ptr %28, align 8
  %29 = load i32, ptr %5, align 4
  %30 = load ptr, ptr %6, align 8
  %31 = getelementptr inbounds %"struct.(anonymous namespace)::pj_adams_data", ptr %30, i32 0, i32 0
  store i32 %29, ptr %31, align 8
  %32 = load i32, ptr %5, align 4
  %33 = icmp eq i32 %32, 4
  br i1 %33, label %34, label %37

34:                                               ; preds = %21
  %35 = load ptr, ptr %4, align 8
  %36 = getelementptr inbounds %struct.PJconsts, ptr %35, i32 0, i32 15
  store ptr @_ZL13adams_inverse5PJ_XYP8PJconsts, ptr %36, align 8
  br label %37

37:                                               ; preds = %34, %21
  %38 = load i32, ptr %5, align 4
  %39 = icmp eq i32 %38, 1
  br i1 %39, label %40, label %177

40:                                               ; preds = %37
  %41 = load ptr, ptr %4, align 8
  %42 = getelementptr inbounds %struct.PJconsts, ptr %41, i32 0, i32 0
  %43 = load ptr, ptr %42, align 8
  %44 = load ptr, ptr %4, align 8
  %45 = getelementptr inbounds %struct.PJconsts, ptr %44, i32 0, i32 3
  %46 = load ptr, ptr %45, align 8
  %47 = call i64 @_Z8pj_paramP6pj_ctxP8ARG_listPKc(ptr noundef %43, ptr noundef %46, ptr noundef @.str.5)
  %48 = getelementptr inbounds %union.PROJVALUE, ptr %8, i32 0, i32 0
  store i64 %47, ptr %48, align 8
  %49 = load ptr, ptr %8, align 8
  store ptr %49, ptr %7, align 8
  %50 = load ptr, ptr %7, align 8
  %51 = icmp ne ptr %50, null
  br i1 %51, label %53, label %52

52:                                               ; preds = %40
  store ptr @.str.6, ptr %7, align 8
  br label %53

53:                                               ; preds = %52, %40
  %54 = load ptr, ptr %7, align 8
  %55 = call i32 @strcmp(ptr noundef %54, ptr noundef @.str.7) #9
  %56 = icmp eq i32 %55, 0
  br i1 %56, label %57, label %62

57:                                               ; preds = %53
  %58 = load ptr, ptr %6, align 8
  %59 = getelementptr inbounds %"struct.(anonymous namespace)::pj_adams_data", ptr %58, i32 0, i32 1
  store i32 0, ptr %59, align 4
  %60 = load ptr, ptr %4, align 8
  %61 = getelementptr inbounds %struct.PJconsts, ptr %60, i32 0, i32 15
  store ptr @_ZL23peirce_q_square_inverse5PJ_XYP8PJconsts, ptr %61, align 8
  br label %176

62:                                               ; preds = %53
  %63 = load ptr, ptr %7, align 8
  %64 = call i32 @strcmp(ptr noundef %63, ptr noundef @.str.6) #9
  %65 = icmp eq i32 %64, 0
  br i1 %65, label %66, label %71

66:                                               ; preds = %62
  %67 = load ptr, ptr %6, align 8
  %68 = getelementptr inbounds %"struct.(anonymous namespace)::pj_adams_data", ptr %67, i32 0, i32 1
  store i32 1, ptr %68, align 4
  %69 = load ptr, ptr %4, align 8
  %70 = getelementptr inbounds %struct.PJconsts, ptr %69, i32 0, i32 15
  store ptr @_ZL24peirce_q_diamond_inverse5PJ_XYP8PJconsts, ptr %70, align 8
  br label %175

71:                                               ; preds = %62
  %72 = load ptr, ptr %7, align 8
  %73 = call i32 @strcmp(ptr noundef %72, ptr noundef @.str.8) #9
  %74 = icmp eq i32 %73, 0
  br i1 %74, label %75, label %78

75:                                               ; preds = %71
  %76 = load ptr, ptr %6, align 8
  %77 = getelementptr inbounds %"struct.(anonymous namespace)::pj_adams_data", ptr %76, i32 0, i32 1
  store i32 2, ptr %77, align 4
  br label %174

78:                                               ; preds = %71
  %79 = load ptr, ptr %7, align 8
  %80 = call i32 @strcmp(ptr noundef %79, ptr noundef @.str.9) #9
  %81 = icmp eq i32 %80, 0
  br i1 %81, label %82, label %85

82:                                               ; preds = %78
  %83 = load ptr, ptr %6, align 8
  %84 = getelementptr inbounds %"struct.(anonymous namespace)::pj_adams_data", ptr %83, i32 0, i32 1
  store i32 3, ptr %84, align 4
  br label %173

85:                                               ; preds = %78
  %86 = load ptr, ptr %7, align 8
  %87 = call i32 @strcmp(ptr noundef %86, ptr noundef @.str.10) #9
  %88 = icmp eq i32 %87, 0
  br i1 %88, label %89, label %126

89:                                               ; preds = %85
  %90 = load ptr, ptr %6, align 8
  %91 = getelementptr inbounds %"struct.(anonymous namespace)::pj_adams_data", ptr %90, i32 0, i32 1
  store i32 4, ptr %91, align 4
  %92 = load ptr, ptr %4, align 8
  %93 = getelementptr inbounds %struct.PJconsts, ptr %92, i32 0, i32 0
  %94 = load ptr, ptr %93, align 8
  %95 = load ptr, ptr %4, align 8
  %96 = getelementptr inbounds %struct.PJconsts, ptr %95, i32 0, i32 3
  %97 = load ptr, ptr %96, align 8
  %98 = call i64 @_Z8pj_paramP6pj_ctxP8ARG_listPKc(ptr noundef %94, ptr noundef %97, ptr noundef @.str.11)
  %99 = getelementptr inbounds %union.PROJVALUE, ptr %9, i32 0, i32 0
  store i64 %98, ptr %99, align 8
  %100 = load i32, ptr %9, align 8
  %101 = icmp ne i32 %100, 0
  br i1 %101, label %102, label %125

102:                                              ; preds = %89
  %103 = load ptr, ptr %4, align 8
  %104 = getelementptr inbounds %struct.PJconsts, ptr %103, i32 0, i32 0
  %105 = load ptr, ptr %104, align 8
  %106 = load ptr, ptr %4, align 8
  %107 = getelementptr inbounds %struct.PJconsts, ptr %106, i32 0, i32 3
  %108 = load ptr, ptr %107, align 8
  %109 = call i64 @_Z8pj_paramP6pj_ctxP8ARG_listPKc(ptr noundef %105, ptr noundef %108, ptr noundef @.str.12)
  %110 = getelementptr inbounds %union.PROJVALUE, ptr %11, i32 0, i32 0
  store i64 %109, ptr %110, align 8
  %111 = load double, ptr %11, align 8
  store double %111, ptr %10, align 8
  %112 = load double, ptr %10, align 8
  %113 = fcmp ogt double %112, 1.000000e+00
  br i1 %113, label %117, label %114

114:                                              ; preds = %102
  %115 = load double, ptr %10, align 8
  %116 = fcmp olt double %115, -1.000000e+00
  br i1 %116, label %117, label %121

117:                                              ; preds = %114, %102
  %118 = load ptr, ptr %4, align 8
  call void (ptr, ptr, ...) @_Z14proj_log_errorPK8PJconstsPKcz(ptr noundef %118, ptr noundef @.str.13)
  %119 = load ptr, ptr %4, align 8
  %120 = call noundef ptr @_Z21pj_default_destructorP8PJconstsi(ptr noundef %119, i32 noundef 1027)
  store ptr %120, ptr %3, align 8
  br label %179

121:                                              ; preds = %114
  %122 = load double, ptr %10, align 8
  %123 = load ptr, ptr %6, align 8
  %124 = getelementptr inbounds %"struct.(anonymous namespace)::pj_adams_data", ptr %123, i32 0, i32 2
  store double %122, ptr %124, align 8
  br label %125

125:                                              ; preds = %121, %89
  br label %172

126:                                              ; preds = %85
  %127 = load ptr, ptr %7, align 8
  %128 = call i32 @strcmp(ptr noundef %127, ptr noundef @.str.14) #9
  %129 = icmp eq i32 %128, 0
  br i1 %129, label %130, label %167

130:                                              ; preds = %126
  %131 = load ptr, ptr %6, align 8
  %132 = getelementptr inbounds %"struct.(anonymous namespace)::pj_adams_data", ptr %131, i32 0, i32 1
  store i32 5, ptr %132, align 4
  %133 = load ptr, ptr %4, align 8
  %134 = getelementptr inbounds %struct.PJconsts, ptr %133, i32 0, i32 0
  %135 = load ptr, ptr %134, align 8
  %136 = load ptr, ptr %4, align 8
  %137 = getelementptr inbounds %struct.PJconsts, ptr %136, i32 0, i32 3
  %138 = load ptr, ptr %137, align 8
  %139 = call i64 @_Z8pj_paramP6pj_ctxP8ARG_listPKc(ptr noundef %135, ptr noundef %138, ptr noundef @.str.15)
  %140 = getelementptr inbounds %union.PROJVALUE, ptr %12, i32 0, i32 0
  store i64 %139, ptr %140, align 8
  %141 = load i32, ptr %12, align 8
  %142 = icmp ne i32 %141, 0
  br i1 %142, label %143, label %166

143:                                              ; preds = %130
  %144 = load ptr, ptr %4, align 8
  %145 = getelementptr inbounds %struct.PJconsts, ptr %144, i32 0, i32 0
  %146 = load ptr, ptr %145, align 8
  %147 = load ptr, ptr %4, align 8
  %148 = getelementptr inbounds %struct.PJconsts, ptr %147, i32 0, i32 3
  %149 = load ptr, ptr %148, align 8
  %150 = call i64 @_Z8pj_paramP6pj_ctxP8ARG_listPKc(ptr noundef %146, ptr noundef %149, ptr noundef @.str.16)
  %151 = getelementptr inbounds %union.PROJVALUE, ptr %14, i32 0, i32 0
  store i64 %150, ptr %151, align 8
  %152 = load double, ptr %14, align 8
  store double %152, ptr %13, align 8
  %153 = load double, ptr %13, align 8
  %154 = fcmp ogt double %153, 1.000000e+00
  br i1 %154, label %158, label %155

155:                                              ; preds = %143
  %156 = load double, ptr %13, align 8
  %157 = fcmp olt double %156, -1.000000e+00
  br i1 %157, label %158, label %162

158:                                              ; preds = %155, %143
  %159 = load ptr, ptr %4, align 8
  call void (ptr, ptr, ...) @_Z14proj_log_errorPK8PJconstsPKcz(ptr noundef %159, ptr noundef @.str.17)
  %160 = load ptr, ptr %4, align 8
  %161 = call noundef ptr @_Z21pj_default_destructorP8PJconstsi(ptr noundef %160, i32 noundef 1027)
  store ptr %161, ptr %3, align 8
  br label %179

162:                                              ; preds = %155
  %163 = load double, ptr %13, align 8
  %164 = load ptr, ptr %6, align 8
  %165 = getelementptr inbounds %"struct.(anonymous namespace)::pj_adams_data", ptr %164, i32 0, i32 3
  store double %163, ptr %165, align 8
  br label %166

166:                                              ; preds = %162, %130
  br label %171

167:                                              ; preds = %126
  %168 = load ptr, ptr %4, align 8
  call void (ptr, ptr, ...) @_Z14proj_log_errorPK8PJconstsPKcz(ptr noundef %168, ptr noundef @.str.18)
  %169 = load ptr, ptr %4, align 8
  %170 = call noundef ptr @_Z21pj_default_destructorP8PJconstsi(ptr noundef %169, i32 noundef 1027)
  store ptr %170, ptr %3, align 8
  br label %179

171:                                              ; preds = %166
  br label %172

172:                                              ; preds = %171, %125
  br label %173

173:                                              ; preds = %172, %82
  br label %174

174:                                              ; preds = %173, %75
  br label %175

175:                                              ; preds = %174, %66
  br label %176

176:                                              ; preds = %175, %57
  br label %177

177:                                              ; preds = %176, %37
  %178 = load ptr, ptr %4, align 8
  store ptr %178, ptr %3, align 8
  br label %179

179:                                              ; preds = %177, %167, %158, %117, %18
  %180 = load ptr, ptr %3, align 8
  ret ptr %180
}

; Function Attrs: mustprogress uwtable
define hidden noundef ptr @_Z38pj_projection_specific_setup_adams_ws1P8PJconsts(ptr noundef %0) #0 {
  %2 = alloca ptr, align 8
  store ptr %0, ptr %2, align 8
  %3 = load ptr, ptr %2, align 8
  %4 = call noundef ptr @_ZL14pj_adams_setupP8PJconstsN12_GLOBAL__N_115projection_typeE(ptr noundef %3, i32 noundef 3)
  ret ptr %4
}