; Function Attrs: mustprogress uwtable
define hidden noundef ptr @_Z38pj_projection_specific_setup_adams_ws1P8PJconsts(ptr noundef %0) local_unnamed_addr #0 {
  %2 = tail call noalias dereferenceable_or_null(24) ptr @calloc(i64 noundef 1, i64 noundef 24) #7
  %3 = icmp eq ptr %2, null
  br i1 %3, label %4, label %6

4:                                                ; preds = %1
  %5 = tail call noundef ptr @_Z21pj_default_destructorP8PJconstsi(ptr noundef %0, i32 noundef 4096)
  br label %_ZL14pj_adams_setupP8PJconstsN12_GLOBAL__N_115projection_typeE.exit

6:                                                ; preds = %1
  %7 = getelementptr inbounds i8, ptr %0, i64 88
  store ptr %2, ptr %7, align 8
  %8 = getelementptr inbounds i8, ptr %0, i64 216
  store double 0.000000e+00, ptr %8, align 8
  %9 = getelementptr inbounds i8, ptr %0, i64 104
  store ptr @_ZL13adams_forward5PJ_LPP8PJconsts, ptr %9, align 8
  store i32 3, ptr %2, align 8
  br label %_ZL14pj_adams_setupP8PJconstsN12_GLOBAL__N_115projection_typeE.exit

_ZL14pj_adams_setupP8PJconstsN12_GLOBAL__N_115projection_typeE.exit: ; preds = %4, %6
  %.0.i = phi ptr [ %5, %4 ], [ %0, %6 ]
  ret ptr %.0.i
}